; Function Attrs: nounwind uwtable
define range(i32 -1, 1) i32 @H5P_set(ptr noundef %0, ptr noundef %1, ptr noundef %2) local_unnamed_addr #0 {
  %4 = alloca %struct.H5P_prop_set_ud_t, align 8
  call void @llvm.lifetime.start.p0(i64 8, ptr nonnull %4) #14
  %5 = load i8, ptr @H5P_init_g, align 1, !tbaa !3, !range !7, !noundef !8
  %6 = trunc nuw i8 %5 to i1
  %7 = load i8, ptr @H5_libterm_g, align 1, !range !7
  %8 = trunc nuw i8 %7 to i1
  %9 = select i1 %6, i1 true, i1 %8
  br i1 %9, label %17, label %10, !prof !9

10:                                               ; preds = %3
  store i8 1, ptr @H5P_init_g, align 1, !tbaa !3
  %11 = tail call i32 @H5P__init_package()
  %12 = icmp slt i32 %11, 0
  br i1 %12, label %13, label %._crit_edge

._crit_edge:                                      ; preds = %10
  %.pre = load i8, ptr @H5P_init_g, align 1, !tbaa !3, !range !7
  %.pre5 = load i8, ptr @H5_libterm_g, align 1, !range !7
  %.pre6 = trunc nuw i8 %.pre to i1
  %.pre7 = trunc nuw i8 %.pre5 to i1
  br label %17

13:                                               ; preds = %10
  store i8 0, ptr @H5P_init_g, align 1, !tbaa !3
  %14 = load i64, ptr @H5E_FUNC_g, align 8, !tbaa !10
  %15 = load i64, ptr @H5E_CANTINIT_g, align 8, !tbaa !10
  %16 = tail call i32 (ptr, ptr, i32, i64, i64, ptr, ...) @H5E_printf_stack(ptr noundef nonnull @.str.7, ptr noundef nonnull @__func__.H5P_set, i32 noundef 3241, i64 noundef %14, i64 noundef %15, ptr noundef nonnull @.str.8) #14
  br label %27

17:                                               ; preds = %._crit_edge, %3
  %.pre-phi8 = phi i1 [ %.pre7, %._crit_edge ], [ %8, %3 ]
  %.pre-phi = phi i1 [ %.pre6, %._crit_edge ], [ %6, %3 ]
  %18 = xor i1 %.pre-phi8, true
  %19 = select i1 %.pre-phi, i1 true, i1 %18
  br i1 %19, label %20, label %27, !prof !9

20:                                               ; preds = %17
  store ptr %2, ptr %4, align 8, !tbaa !95
  %21 = call fastcc i32 @H5P__do_prop(ptr noundef %0, ptr noundef %1, ptr noundef nonnull @H5P__set_plist_cb, ptr noundef nonnull @H5P__set_pclass_cb, ptr noundef nonnull %4)
  %22 = icmp slt i32 %21, 0
  br i1 %22, label %23, label %27

23:                                               ; preds = %20
  %24 = load i64, ptr @H5E_PLIST_g, align 8, !tbaa !10
  %25 = load i64, ptr @H5E_CANTOPERATE_g, align 8, !tbaa !10
  %26 = call i32 (ptr, ptr, i32, i64, i64, ptr, ...) @H5E_printf_stack(ptr noundef nonnull @.str.7, ptr noundef nonnull @__func__.H5P_set, i32 noundef 3251, i64 noundef %24, i64 noundef %25, ptr noundef nonnull @.str.47) #14
  br label %27

27:                                               ; preds = %13, %23, %20, %17
  %.0 = phi i32 [ -1, %13 ], [ -1, %23 ], [ 0, %20 ], [ 0, %17 ]
  call void @llvm.lifetime.end.p0(i64 8, ptr nonnull %4) #14
  ret i32 %.0
}